target datalayout = "e-m:e-p270:32:32-p271:32:32-p272:64:64-i64:64-i128:128-f80:128-n8:16:32:64-S128"
target triple = "x86_64-pc-linux-gnu"

%struct.object_id = type { [32 x i8], i32 }
%struct.cache_time = type { i32, i32 }
%struct.cache_entry = type { %struct.hashmap_entry, %struct.stat_data, i32, i32, i32, i32, i32, %struct.object_id, [0 x i8] }
%struct.hashmap_entry = type { ptr, i32 }
%struct.stat_data = type { %struct.cache_time, %struct.cache_time, i32, i32, i32, i32, i32 }

@the_repository = external global ptr, align 8

; Function Attrs: nounwind uwtable
define internal i32 @must_check_existence(ptr noundef %0) #0 {
  %2 = alloca ptr, align 8
  store ptr %0, ptr %2, align 8, !tbaa !52
  %3 = load ptr, ptr @the_repository, align 8, !tbaa !48
  %4 = call i32 @repo_has_promisor_remote(ptr noundef %3)
  %5 = icmp ne i32 %4, 0
  br i1 %5, label %6, label %12

6:                                                ; preds = %1
  %7 = load ptr, ptr %2, align 8, !tbaa !52
  %8 = getelementptr inbounds nuw %struct.cache_entry, ptr %7, i32 0, i32 3
  %9 = load i32, ptr %8, align 8, !tbaa !16
  %10 = and i32 %9, 1073741824
  %11 = icmp ne i32 %10, 0
  br label %12

12:                                               ; preds = %6, %1
  %13 = phi i1 [ false, %1 ], [ %11, %6 ]
  %14 = xor i1 %13, true
  %15 = zext i1 %14 to i32
  ret i32 %15
}