; Function Attrs: nounwind uwtable
define internal range(i32 0, 2) i32 @must_check_existence(ptr noundef readonly captures(none) %0) #0 {
  %2 = load ptr, ptr @the_repository, align 8, !tbaa !40
  %3 = tail call i32 @repo_has_promisor_remote(ptr noundef %2) #18
  %.not = icmp eq i32 %3, 0
  br i1 %.not, label %9, label %4

4:                                                ; preds = %1
  %5 = getelementptr inbounds nuw i8, ptr %0, i64 56
  %6 = load i32, ptr %5, align 8, !tbaa !20
  %7 = lshr i32 %6, 30
  %.lobit = and i32 %7, 1
  %8 = xor i32 %.lobit, 1
  br label %9

9:                                                ; preds = %4, %1
  %10 = phi i32 [ 1, %1 ], [ %8, %4 ]
  ret i32 %10
}